target datalayout = "e-m:e-p270:32:32-p271:32:32-p272:64:64-i64:64-i128:128-f80:128-n8:16:32:64-S128"
target triple = "x86_64-pc-linux-gnu"

%"class.icu_77::SpoofData" = type { ptr, i8, ptr, i32, %"struct.std::atomic", ptr, ptr, ptr }
%"struct.std::atomic" = type { %"struct.std::__atomic_base" }
%"struct.std::__atomic_base" = type { i32 }

; Function Attrs: mustprogress nounwind uwtable
define void @_ZN6icu_779SpoofDataD2Ev(ptr noundef nonnull align 8 dereferenceable(56) %0) unnamed_addr #0 align 2 personality ptr @__gxx_personality_v0 {
  %2 = alloca ptr, align 8
  store ptr %0, ptr %2, align 8, !tbaa !8
  %3 = load ptr, ptr %2, align 8
  %4 = getelementptr inbounds nuw %"class.icu_77::SpoofData", ptr %3, i32 0, i32 1
  %5 = load i8, ptr %4, align 8, !tbaa !97
  %6 = icmp ne i8 %5, 0
  br i1 %6, label %7, label %11

7:                                                ; preds = %1
  %8 = getelementptr inbounds nuw %"class.icu_77::SpoofData", ptr %3, i32 0, i32 0
  %9 = load ptr, ptr %8, align 8, !tbaa !35
  invoke void @uprv_free_77(ptr noundef %9)
          to label %10 unwind label %22

10:                                               ; preds = %7
  br label %11

11:                                               ; preds = %10, %1
  %12 = getelementptr inbounds nuw %"class.icu_77::SpoofData", ptr %3, i32 0, i32 0
  store ptr null, ptr %12, align 8, !tbaa !35
  %13 = getelementptr inbounds nuw %"class.icu_77::SpoofData", ptr %3, i32 0, i32 2
  %14 = load ptr, ptr %13, align 8, !tbaa !96
  %15 = icmp ne ptr %14, null
  br i1 %15, label %16, label %20

16:                                               ; preds = %11
  %17 = getelementptr inbounds nuw %"class.icu_77::SpoofData", ptr %3, i32 0, i32 2
  %18 = load ptr, ptr %17, align 8, !tbaa !96
  invoke void @udata_close_77(ptr noundef %18)
          to label %19 unwind label %22

19:                                               ; preds = %16
  br label %20

20:                                               ; preds = %19, %11
  %21 = getelementptr inbounds nuw %"class.icu_77::SpoofData", ptr %3, i32 0, i32 2
  store ptr null, ptr %21, align 8, !tbaa !96
  ret void

22:                                               ; preds = %16, %7
  %23 = landingpad { ptr, i32 }
          catch ptr null
  %24 = extractvalue { ptr, i32 } %23, 0
  call void @__clang_call_terminate(ptr %24) #16
  unreachable
}