; Function Attrs: mustprogress nounwind uwtable
define void @_ZN6icu_779SpoofDataD2Ev(ptr noundef nonnull align 8 captures(none) dereferenceable(56) %0) unnamed_addr #6 align 2 personality ptr @__gxx_personality_v0 {
  %2 = getelementptr inbounds nuw i8, ptr %0, i64 8
  %3 = load i8, ptr %2, align 8, !tbaa !73
  %.not = icmp eq i8 %3, 0
  br i1 %.not, label %6, label %4

4:                                                ; preds = %1
  %5 = load ptr, ptr %0, align 8, !tbaa !29
  invoke void @uprv_free_77(ptr noundef %5)
          to label %6 unwind label %11

6:                                                ; preds = %4, %1
  store ptr null, ptr %0, align 8, !tbaa !29
  %7 = getelementptr inbounds nuw i8, ptr %0, i64 16
  %8 = load ptr, ptr %7, align 8, !tbaa !74
  %.not1 = icmp eq ptr %8, null
  br i1 %.not1, label %10, label %9

9:                                                ; preds = %6
  invoke void @udata_close_77(ptr noundef nonnull %8)
          to label %10 unwind label %11

10:                                               ; preds = %9, %6
  store ptr null, ptr %7, align 8, !tbaa !74
  ret void

11:                                               ; preds = %9, %4
  %12 = landingpad { ptr, i32 }
          catch ptr null
  %13 = extractvalue { ptr, i32 } %12, 0
  tail call void @__clang_call_terminate(ptr %13) #22
  unreachable
}